target datalayout = "e-m:e-p270:32:32-p271:32:32-p272:64:64-i64:64-i128:128-f80:128-n8:16:32:64-S128"
target triple = "x86_64-pc-linux-gnu"

; Function Attrs: mustprogress uwtable
define internal noundef i32 @_ZL20ucnv_internalConvertP10UConverterS0_PciPKciP10UErrorCode(ptr noundef %0, ptr noundef %1, ptr noundef %2, i32 noundef %3, ptr noundef %4, i32 noundef %5, ptr noundef %6) #0 {
  %8 = alloca i32, align 4
  %9 = alloca ptr, align 8
  %10 = alloca ptr, align 8
  %11 = alloca ptr, align 8
  %12 = alloca i32, align 4
  %13 = alloca ptr, align 8
  %14 = alloca i32, align 4
  %15 = alloca ptr, align 8
  %16 = alloca [1024 x i16], align 16
  %17 = alloca ptr, align 8
  %18 = alloca ptr, align 8
  %19 = alloca ptr, align 8
  %20 = alloca ptr, align 8
  %21 = alloca ptr, align 8
  %22 = alloca i32, align 4
  %23 = alloca i32, align 4
  %24 = alloca [1024 x i8], align 16
  store ptr %0, ptr %9, align 8, !tbaa !11
  store ptr %1, ptr %10, align 8, !tbaa !11
  store ptr %2, ptr %11, align 8, !tbaa !3
  store i32 %3, ptr %12, align 4, !tbaa !15
  store ptr %4, ptr %13, align 8, !tbaa !3
  store i32 %5, ptr %14, align 4, !tbaa !15
  store ptr %6, ptr %15, align 8, !tbaa !8
  call void @llvm.lifetime.start.p0(i64 2048, ptr %16) #11
  call void @llvm.lifetime.start.p0(i64 8, ptr %17) #11
  call void @llvm.lifetime.start.p0(i64 8, ptr %18) #11
  call void @llvm.lifetime.start.p0(i64 8, ptr %19) #11
  call void @llvm.lifetime.start.p0(i64 8, ptr %20) #11
  call void @llvm.lifetime.start.p0(i64 8, ptr %21) #11
  call void @llvm.lifetime.start.p0(i64 4, ptr %22) #11
  store i32 0, ptr %22, align 4, !tbaa !15
  %25 = load i32, ptr %14, align 4, !tbaa !15
  %26 = icmp slt i32 %25, 0
  br i1 %26, label %27, label %30

27:                                               ; preds = %7
  %28 = load ptr, ptr %13, align 8, !tbaa !3
  %29 = call noundef ptr @strchr(ptr noundef %28, i32 noundef 0) #13
  store ptr %29, ptr %20, align 8, !tbaa !3
  br label %35

30:                                               ; preds = %7
  %31 = load ptr, ptr %13, align 8, !tbaa !3
  %32 = load i32, ptr %14, align 4, !tbaa !15
  %33 = sext i32 %32 to i64
  %34 = getelementptr inbounds i8, ptr %31, i64 %33
  store ptr %34, ptr %20, align 8, !tbaa !3
  br label %35

35:                                               ; preds = %30, %27
  %36 = load ptr, ptr %13, align 8, !tbaa !3
  %37 = load ptr, ptr %20, align 8, !tbaa !3
  %38 = icmp eq ptr %36, %37
  br i1 %38, label %39, label %44

39:                                               ; preds = %35
  %40 = load ptr, ptr %11, align 8, !tbaa !3
  %41 = load i32, ptr %12, align 4, !tbaa !15
  %42 = load ptr, ptr %15, align 8, !tbaa !8
  %43 = call i32 @u_terminateChars_77(ptr noundef %40, i32 noundef %41, i32 noundef 0, ptr noundef %42)
  store i32 %43, ptr %8, align 4
  store i32 1, ptr %23, align 4
  br label %109

44:                                               ; preds = %35
  %45 = getelementptr inbounds [1024 x i16], ptr %16, i64 0, i64 0
  store ptr %45, ptr %18, align 8, !tbaa !13
  store ptr %45, ptr %17, align 8, !tbaa !13
  %46 = load ptr, ptr %11, align 8, !tbaa !3
  store ptr %46, ptr %19, align 8, !tbaa !3
  store i32 0, ptr %22, align 4, !tbaa !15
  %47 = load i32, ptr %12, align 4, !tbaa !15
  %48 = icmp sgt i32 %47, 0
  br i1 %48, label %49, label %68

49:                                               ; preds = %44
  %50 = load ptr, ptr %11, align 8, !tbaa !3
  %51 = load i32, ptr %12, align 4, !tbaa !15
  %52 = sext i32 %51 to i64
  %53 = getelementptr inbounds i8, ptr %50, i64 %52
  store ptr %53, ptr %21, align 8, !tbaa !3
  %54 = load ptr, ptr %9, align 8, !tbaa !11
  %55 = load ptr, ptr %10, align 8, !tbaa !11
  %56 = load ptr, ptr %21, align 8, !tbaa !3
  %57 = load ptr, ptr %20, align 8, !tbaa !3
  %58 = getelementptr inbounds [1024 x i16], ptr %16, i64 0, i64 0
  %59 = getelementptr inbounds [1024 x i16], ptr %16, i64 0, i64 0
  %60 = getelementptr inbounds i16, ptr %59, i64 1024
  %61 = load ptr, ptr %15, align 8, !tbaa !8
  call void @ucnv_convertEx_77(ptr noundef %54, ptr noundef %55, ptr noundef %19, ptr noundef %56, ptr noundef %13, ptr noundef %57, ptr noundef %58, ptr noundef %17, ptr noundef %18, ptr noundef %60, i8 noundef signext 0, i8 noundef signext 1, ptr noundef %61)
  %62 = load ptr, ptr %19, align 8, !tbaa !3
  %63 = load ptr, ptr %11, align 8, !tbaa !3
  %64 = ptrtoint ptr %62 to i64
  %65 = ptrtoint ptr %63 to i64
  %66 = sub i64 %64, %65
  %67 = trunc i64 %66 to i32
  store i32 %67, ptr %22, align 4, !tbaa !15
  br label %68

68:                                               ; preds = %49, %44
  %69 = load ptr, ptr %15, align 8, !tbaa !8
  %70 = load i32, ptr %69, align 4, !tbaa !9
  %71 = icmp eq i32 %70, 15
  br i1 %71, label %75, label %72

72:                                               ; preds = %68
  %73 = load i32, ptr %12, align 4, !tbaa !15
  %74 = icmp eq i32 %73, 0
  br i1 %74, label %75, label %107

75:                                               ; preds = %72, %68
  call void @llvm.lifetime.start.p0(i64 1024, ptr %24) #11
  %76 = getelementptr inbounds [1024 x i8], ptr %24, i64 0, i64 0
  %77 = getelementptr inbounds i8, ptr %76, i64 1024
  store ptr %77, ptr %21, align 8, !tbaa !3
  br label %78

78:                                               ; preds = %97, %75
  %79 = load ptr, ptr %15, align 8, !tbaa !8
  store i32 0, ptr %79, align 4, !tbaa !9
  %80 = getelementptr inbounds [1024 x i8], ptr %24, i64 0, i64 0
  store ptr %80, ptr %19, align 8, !tbaa !3
  %81 = load ptr, ptr %9, align 8, !tbaa !11
  %82 = load ptr, ptr %10, align 8, !tbaa !11
  %83 = load ptr, ptr %21, align 8, !tbaa !3
  %84 = load ptr, ptr %20, align 8, !tbaa !3
  %85 = getelementptr inbounds [1024 x i16], ptr %16, i64 0, i64 0
  %86 = getelementptr inbounds [1024 x i16], ptr %16, i64 0, i64 0
  %87 = getelementptr inbounds i16, ptr %86, i64 1024
  %88 = load ptr, ptr %15, align 8, !tbaa !8
  call void @ucnv_convertEx_77(ptr noundef %81, ptr noundef %82, ptr noundef %19, ptr noundef %83, ptr noundef %13, ptr noundef %84, ptr noundef %85, ptr noundef %17, ptr noundef %18, ptr noundef %87, i8 noundef signext 0, i8 noundef signext 1, ptr noundef %88)
  %89 = load ptr, ptr %19, align 8, !tbaa !3
  %90 = getelementptr inbounds [1024 x i8], ptr %24, i64 0, i64 0
  %91 = ptrtoint ptr %89 to i64
  %92 = ptrtoint ptr %90 to i64
  %93 = sub i64 %91, %92
  %94 = trunc i64 %93 to i32
  %95 = load i32, ptr %22, align 4, !tbaa !15
  %96 = add nsw i32 %95, %94
  store i32 %96, ptr %22, align 4, !tbaa !15
  br label %97

97:                                               ; preds = %78
  %98 = load ptr, ptr %15, align 8, !tbaa !8
  %99 = load i32, ptr %98, align 4, !tbaa !9
  %100 = icmp eq i32 %99, 15
  br i1 %100, label %78, label %101, !llvm.loop !124

101:                                              ; preds = %97
  %102 = load ptr, ptr %11, align 8, !tbaa !3
  %103 = load i32, ptr %12, align 4, !tbaa !15
  %104 = load i32, ptr %22, align 4, !tbaa !15
  %105 = load ptr, ptr %15, align 8, !tbaa !8
  %106 = call i32 @u_terminateChars_77(ptr noundef %102, i32 noundef %103, i32 noundef %104, ptr noundef %105)
  store i32 %106, ptr %8, align 4
  store i32 1, ptr %23, align 4
  call void @llvm.lifetime.end.p0(i64 1024, ptr %24) #11
  br label %109

107:                                              ; preds = %72
  %108 = load i32, ptr %22, align 4, !tbaa !15
  store i32 %108, ptr %8, align 4
  store i32 1, ptr %23, align 4
  br label %109

109:                                              ; preds = %107, %101, %39
  call void @llvm.lifetime.end.p0(i64 4, ptr %22) #11
  call void @llvm.lifetime.end.p0(i64 8, ptr %21) #11
  call void @llvm.lifetime.end.p0(i64 8, ptr %20) #11
  call void @llvm.lifetime.end.p0(i64 8, ptr %19) #11
  call void @llvm.lifetime.end.p0(i64 8, ptr %18) #11
  call void @llvm.lifetime.end.p0(i64 8, ptr %17) #11
  call void @llvm.lifetime.end.p0(i64 2048, ptr %16) #11
  %110 = load i32, ptr %8, align 4
  ret i32 %110
}