; Function Attrs: mustprogress uwtable
define internal fastcc noundef i32 @_ZL20ucnv_internalConvertP10UConverterS0_PciPKciP10UErrorCode(ptr noundef %0, ptr noundef %1, ptr noundef %2, i32 noundef range(i32 0, -2147483648) %3, ptr noundef nonnull %4, i32 noundef range(i32 -1, -2147483648) %5, ptr noundef nonnull %6) unnamed_addr #0 {
  %8 = alloca ptr, align 8
  %9 = alloca [1024 x i16], align 16
  %10 = alloca ptr, align 8
  %11 = alloca ptr, align 8
  %12 = alloca ptr, align 8
  %13 = alloca [1024 x i8], align 16
  store ptr %4, ptr %8, align 8, !tbaa !52
  call void @llvm.lifetime.start.p0(i64 2048, ptr nonnull %9) #16
  call void @llvm.lifetime.start.p0(i64 8, ptr nonnull %10) #16
  call void @llvm.lifetime.start.p0(i64 8, ptr nonnull %11) #16
  call void @llvm.lifetime.start.p0(i64 8, ptr nonnull %12) #16
  %14 = icmp slt i32 %5, 0
  br i1 %14, label %15, label %16

15:                                               ; preds = %7
  %strlen = tail call i64 @strlen(ptr nonnull dereferenceable(1) %4)
  br label %18

16:                                               ; preds = %7
  %17 = zext nneg i32 %5 to i64
  br label %18

18:                                               ; preds = %16, %15
  %strlen.pn = phi i64 [ %strlen, %15 ], [ %17, %16 ]
  %.032 = getelementptr inbounds i8, ptr %4, i64 %strlen.pn
  %19 = icmp eq i64 %strlen.pn, 0
  br i1 %19, label %20, label %22

20:                                               ; preds = %18
  %21 = tail call i32 @u_terminateChars_77(ptr noundef %2, i32 noundef %3, i32 noundef 0, ptr noundef nonnull %6)
  br label %47

22:                                               ; preds = %18
  store ptr %9, ptr %11, align 8, !tbaa !53
  store ptr %9, ptr %10, align 8, !tbaa !53
  store ptr %2, ptr %12, align 8, !tbaa !52
  %.not = icmp eq i32 %3, 0
  br i1 %.not, label %.thread, label %23

23:                                               ; preds = %22
  %24 = zext nneg i32 %3 to i64
  %25 = getelementptr inbounds nuw i8, ptr %2, i64 %24
  %26 = getelementptr inbounds nuw i8, ptr %9, i64 2048
  call void @ucnv_convertEx_77(ptr noundef %0, ptr noundef %1, ptr noundef nonnull %12, ptr noundef nonnull %25, ptr noundef nonnull %8, ptr noundef nonnull %.032, ptr noundef nonnull %9, ptr noundef nonnull %10, ptr noundef nonnull %11, ptr noundef nonnull %26, i8 noundef signext 0, i8 noundef signext 1, ptr noundef nonnull %6)
  %27 = load ptr, ptr %12, align 8, !tbaa !52
  %28 = ptrtoint ptr %27 to i64
  %29 = ptrtoint ptr %2 to i64
  %30 = sub i64 %28, %29
  %31 = trunc i64 %30 to i32
  %32 = load i32, ptr %6, align 4, !tbaa !3
  %33 = icmp eq i32 %32, 15
  br i1 %33, label %.thread, label %47

.thread:                                          ; preds = %22, %23
  %.038 = phi i32 [ %31, %23 ], [ 0, %22 ]
  call void @llvm.lifetime.start.p0(i64 1024, ptr nonnull %13) #16
  %34 = getelementptr inbounds nuw i8, ptr %13, i64 1024
  %35 = getelementptr inbounds nuw i8, ptr %9, i64 2048
  %36 = ptrtoint ptr %13 to i64
  br label %37

37:                                               ; preds = %37, %.thread
  %.1 = phi i32 [ %.038, %.thread ], [ %42, %37 ]
  store i32 0, ptr %6, align 4, !tbaa !3
  store ptr %13, ptr %12, align 8, !tbaa !52
  call void @ucnv_convertEx_77(ptr noundef %0, ptr noundef %1, ptr noundef nonnull %12, ptr noundef nonnull %34, ptr noundef nonnull %8, ptr noundef nonnull %.032, ptr noundef nonnull %9, ptr noundef nonnull %10, ptr noundef nonnull %11, ptr noundef nonnull %35, i8 noundef signext 0, i8 noundef signext 1, ptr noundef nonnull %6)
  %38 = load ptr, ptr %12, align 8, !tbaa !52
  %39 = ptrtoint ptr %38 to i64
  %40 = sub i64 %39, %36
  %41 = trunc i64 %40 to i32
  %42 = add nsw i32 %.1, %41
  %43 = load i32, ptr %6, align 4, !tbaa !3
  %44 = icmp eq i32 %43, 15
  br i1 %44, label %37, label %45, !llvm.loop !109

45:                                               ; preds = %37
  %46 = call i32 @u_terminateChars_77(ptr noundef %2, i32 noundef %3, i32 noundef %42, ptr noundef nonnull %6)
  call void @llvm.lifetime.end.p0(i64 1024, ptr nonnull %13) #16
  br label %47

47:                                               ; preds = %23, %45, %20
  %.033 = phi i32 [ %21, %20 ], [ %46, %45 ], [ %31, %23 ]
  call void @llvm.lifetime.end.p0(i64 8, ptr nonnull %12) #16
  call void @llvm.lifetime.end.p0(i64 8, ptr nonnull %11) #16
  call void @llvm.lifetime.end.p0(i64 8, ptr nonnull %10) #16
  call void @llvm.lifetime.end.p0(i64 2048, ptr nonnull %9) #16
  ret i32 %.033
}